target datalayout = "e-m:e-p270:32:32-p271:32:32-p272:64:64-i64:64-i128:128-f80:128-n8:16:32:64-S128"
target triple = "x86_64-pc-linux-gnu"

%struct.normal_encoding = type { %struct.encoding, [256 x i8], ptr, ptr, ptr, ptr, ptr, ptr, ptr, ptr, ptr }
%struct.encoding = type { [3 x ptr], [2 x ptr], ptr, ptr, ptr, ptr, ptr, ptr, ptr, ptr, ptr, ptr, i32, i8, i8 }

; Function Attrs: nounwind uwtable
define internal i32 @unicode_byte_type(i8 noundef signext %0, i8 noundef signext %1) #0 {
  %3 = alloca i32, align 4
  %4 = alloca i8, align 1
  %5 = alloca i8, align 1
  store i8 %0, ptr %4, align 1, !tbaa !13
  store i8 %1, ptr %5, align 1, !tbaa !13
  %6 = load i8, ptr %4, align 1, !tbaa !13
  %7 = zext i8 %6 to i32
  switch i32 %7, label %15 [
    i32 216, label %8
    i32 217, label %8
    i32 218, label %8
    i32 219, label %8
    i32 220, label %9
    i32 221, label %9
    i32 222, label %9
    i32 223, label %9
    i32 255, label %10
  ]

8:                                                ; preds = %2, %2, %2, %2
  store i32 7, ptr %3, align 4
  br label %16

9:                                                ; preds = %2, %2, %2, %2
  store i32 8, ptr %3, align 4
  br label %16

10:                                               ; preds = %2
  %11 = load i8, ptr %5, align 1, !tbaa !13
  %12 = zext i8 %11 to i32
  switch i32 %12, label %14 [
    i32 255, label %13
    i32 254, label %13
  ]

13:                                               ; preds = %10, %10
  store i32 0, ptr %3, align 4
  br label %16

14:                                               ; preds = %10
  br label %15

15:                                               ; preds = %2, %14
  store i32 29, ptr %3, align 4
  br label %16

16:                                               ; preds = %15, %13, %9, %8
  %17 = load i32, ptr %3, align 4
  ret i32 %17
}

; Function Attrs: nounwind uwtable
define internal i32 @little2_isPublicId(ptr noundef %0, ptr noundef %1, ptr noundef %2, ptr noundef %3) #0 {
  %5 = alloca i32, align 4
  %6 = alloca ptr, align 8
  %7 = alloca ptr, align 8
  %8 = alloca ptr, align 8
  %9 = alloca ptr, align 8
  store ptr %0, ptr %6, align 8, !tbaa !45
  store ptr %1, ptr %7, align 8, !tbaa !4
  store ptr %2, ptr %8, align 8, !tbaa !4
  store ptr %3, ptr %9, align 8, !tbaa !9
  %10 = load ptr, ptr %7, align 8, !tbaa !4
  %11 = getelementptr inbounds i8, ptr %10, i64 2
  store ptr %11, ptr %7, align 8, !tbaa !4
  %12 = load ptr, ptr %8, align 8, !tbaa !4
  %13 = getelementptr inbounds i8, ptr %12, i64 -2
  store ptr %13, ptr %8, align 8, !tbaa !4
  br label %14

14:                                               ; preds = %101, %4
  %15 = load ptr, ptr %8, align 8, !tbaa !4
  %16 = load ptr, ptr %7, align 8, !tbaa !4
  %17 = ptrtoint ptr %15 to i64
  %18 = ptrtoint ptr %16 to i64
  %19 = sub i64 %17, %18
  %20 = icmp sge i64 %19, 2
  br i1 %20, label %21, label %104

21:                                               ; preds = %14
  %22 = load ptr, ptr %7, align 8, !tbaa !4
  %23 = getelementptr inbounds i8, ptr %22, i64 1
  %24 = load i8, ptr %23, align 1, !tbaa !13
  %25 = sext i8 %24 to i32
  %26 = icmp eq i32 %25, 0
  br i1 %26, label %27, label %36

27:                                               ; preds = %21
  %28 = load ptr, ptr %6, align 8, !tbaa !45
  %29 = getelementptr inbounds nuw %struct.normal_encoding, ptr %28, i32 0, i32 1
  %30 = load ptr, ptr %7, align 8, !tbaa !4
  %31 = load i8, ptr %30, align 1, !tbaa !13
  %32 = zext i8 %31 to i64
  %33 = getelementptr inbounds nuw [256 x i8], ptr %29, i64 0, i64 %32
  %34 = load i8, ptr %33, align 1, !tbaa !13
  %35 = zext i8 %34 to i32
  br label %44

36:                                               ; preds = %21
  %37 = load ptr, ptr %7, align 8, !tbaa !4
  %38 = getelementptr inbounds i8, ptr %37, i64 1
  %39 = load i8, ptr %38, align 1, !tbaa !13
  %40 = load ptr, ptr %7, align 8, !tbaa !4
  %41 = getelementptr inbounds i8, ptr %40, i64 0
  %42 = load i8, ptr %41, align 1, !tbaa !13
  %43 = call i32 @unicode_byte_type(i8 noundef signext %39, i8 noundef signext %42)
  br label %44

44:                                               ; preds = %36, %27
  %45 = phi i32 [ %35, %27 ], [ %43, %36 ]
  switch i32 %45, label %81 [
    i32 25, label %46
    i32 24, label %46
    i32 27, label %46
    i32 13, label %46
    i32 31, label %46
    i32 32, label %46
    i32 34, label %46
    i32 35, label %46
    i32 17, label %46
    i32 14, label %46
    i32 15, label %46
    i32 9, label %46
    i32 10, label %46
    i32 18, label %46
    i32 16, label %46
    i32 33, label %46
    i32 30, label %46
    i32 19, label %46
    i32 21, label %47
    i32 26, label %63
    i32 22, label %63
  ]

46:                                               ; preds = %44, %44, %44, %44, %44, %44, %44, %44, %44, %44, %44, %44, %44, %44, %44, %44, %44, %44
  br label %100

47:                                               ; preds = %44
  %48 = load ptr, ptr %7, align 8, !tbaa !4
  %49 = getelementptr inbounds i8, ptr %48, i64 1
  %50 = load i8, ptr %49, align 1, !tbaa !13
  %51 = sext i8 %50 to i32
  %52 = icmp eq i32 %51, 0
  br i1 %52, label %53, label %62

53:                                               ; preds = %47
  %54 = load ptr, ptr %7, align 8, !tbaa !4
  %55 = getelementptr inbounds i8, ptr %54, i64 0
  %56 = load i8, ptr %55, align 1, !tbaa !13
  %57 = sext i8 %56 to i32
  %58 = icmp eq i32 %57, 9
  br i1 %58, label %59, label %62

59:                                               ; preds = %53
  %60 = load ptr, ptr %7, align 8, !tbaa !4
  %61 = load ptr, ptr %9, align 8, !tbaa !9
  store ptr %60, ptr %61, align 8, !tbaa !4
  store i32 0, ptr %5, align 4
  br label %105

62:                                               ; preds = %53, %47
  br label %100

63:                                               ; preds = %44, %44
  %64 = load ptr, ptr %7, align 8, !tbaa !4
  %65 = getelementptr inbounds i8, ptr %64, i64 1
  %66 = load i8, ptr %65, align 1, !tbaa !13
  %67 = sext i8 %66 to i32
  %68 = icmp eq i32 %67, 0
  br i1 %68, label %69, label %74

69:                                               ; preds = %63
  %70 = load ptr, ptr %7, align 8, !tbaa !4
  %71 = getelementptr inbounds i8, ptr %70, i64 0
  %72 = load i8, ptr %71, align 1, !tbaa !13
  %73 = sext i8 %72 to i32
  br label %75

74:                                               ; preds = %63
  br label %75

75:                                               ; preds = %74, %69
  %76 = phi i32 [ %73, %69 ], [ -1, %74 ]
  %77 = and i32 %76, -128
  %78 = icmp ne i32 %77, 0
  br i1 %78, label %80, label %79

79:                                               ; preds = %75
  br label %100

80:                                               ; preds = %75
  br label %81

81:                                               ; preds = %44, %80
  %82 = load ptr, ptr %7, align 8, !tbaa !4
  %83 = getelementptr inbounds i8, ptr %82, i64 1
  %84 = load i8, ptr %83, align 1, !tbaa !13
  %85 = sext i8 %84 to i32
  %86 = icmp eq i32 %85, 0
  br i1 %86, label %87, label %92

87:                                               ; preds = %81
  %88 = load ptr, ptr %7, align 8, !tbaa !4
  %89 = getelementptr inbounds i8, ptr %88, i64 0
  %90 = load i8, ptr %89, align 1, !tbaa !13
  %91 = sext i8 %90 to i32
  br label %93

92:                                               ; preds = %81
  br label %93

93:                                               ; preds = %92, %87
  %94 = phi i32 [ %91, %87 ], [ -1, %92 ]
  switch i32 %94, label %96 [
    i32 36, label %95
    i32 64, label %95
  ]

95:                                               ; preds = %93, %93
  br label %99

96:                                               ; preds = %93
  %97 = load ptr, ptr %7, align 8, !tbaa !4
  %98 = load ptr, ptr %9, align 8, !tbaa !9
  store ptr %97, ptr %98, align 8, !tbaa !4
  store i32 0, ptr %5, align 4
  br label %105

99:                                               ; preds = %95
  br label %100

100:                                              ; preds = %99, %79, %62, %46
  br label %101

101:                                              ; preds = %100
  %102 = load ptr, ptr %7, align 8, !tbaa !4
  %103 = getelementptr inbounds i8, ptr %102, i64 2
  store ptr %103, ptr %7, align 8, !tbaa !4
  br label %14, !llvm.loop !121

104:                                              ; preds = %14
  store i32 1, ptr %5, align 4
  br label %105

105:                                              ; preds = %104, %96, %59
  %106 = load i32, ptr %5, align 4
  ret i32 %106
}