; Function Attrs: nofree norecurse nosync nounwind memory(argmem: readwrite) uwtable
define internal range(i32 0, 2) i32 @little2_isPublicId(ptr noundef readonly captures(none) %0, ptr noundef %1, ptr noundef %2, ptr noundef writeonly captures(none) %3) #4 {
  %5 = getelementptr inbounds i8, ptr %2, i64 -2
  %6 = ptrtoint ptr %5 to i64
  %.02024 = getelementptr inbounds nuw i8, ptr %1, i64 2
  %7 = ptrtoint ptr %.02024 to i64
  %8 = sub i64 %6, %7
  %9 = icmp sgt i64 %8, 1
  br i1 %9, label %.lr.ph, label %.loopexit

.lr.ph:                                           ; preds = %4
  %10 = getelementptr inbounds nuw i8, ptr %0, i64 128
  br label %11

11:                                               ; preds = %.lr.ph, %25
  %.02026 = phi ptr [ %.02024, %.lr.ph ], [ %.020, %25 ]
  %.pn25 = phi ptr [ %1, %.lr.ph ], [ %.02026, %25 ]
  %12 = getelementptr inbounds nuw i8, ptr %.pn25, i64 3
  %13 = load i8, ptr %12, align 1, !tbaa !9
  %14 = icmp eq i8 %13, 0
  br i1 %14, label %unicode_byte_type.exit, label %.loopexit.sink.split

unicode_byte_type.exit:                           ; preds = %11
  %15 = load i8, ptr %.02026, align 1, !tbaa !9
  %16 = zext i8 %15 to i64
  %17 = getelementptr inbounds nuw [256 x i8], ptr %10, i64 0, i64 %16
  %18 = load i8, ptr %17, align 1, !tbaa !9
  switch i8 %18, label %.critedge..critedge.thread_crit_edge [
    i8 25, label %25
    i8 24, label %25
    i8 27, label %25
    i8 13, label %25
    i8 31, label %25
    i8 32, label %25
    i8 34, label %25
    i8 35, label %25
    i8 17, label %25
    i8 14, label %25
    i8 15, label %25
    i8 9, label %25
    i8 10, label %25
    i8 18, label %25
    i8 16, label %25
    i8 33, label %25
    i8 30, label %25
    i8 19, label %25
    i8 21, label %19
    i8 26, label %22
    i8 22, label %22
  ]

19:                                               ; preds = %unicode_byte_type.exit
  %20 = load i8, ptr %.02026, align 1, !tbaa !9
  %21 = icmp eq i8 %20, 9
  br i1 %21, label %.loopexit.sink.split, label %25

22:                                               ; preds = %unicode_byte_type.exit, %unicode_byte_type.exit
  %23 = icmp sgt i8 %15, -1
  br i1 %23, label %25, label %.critedge.thread

.critedge..critedge.thread_crit_edge:             ; preds = %unicode_byte_type.exit
  %.pre = load i8, ptr %.02026, align 1, !tbaa !9
  br label %.critedge.thread

.critedge.thread:                                 ; preds = %.critedge..critedge.thread_crit_edge, %22
  %24 = phi i8 [ %.pre, %.critedge..critedge.thread_crit_edge ], [ %15, %22 ]
  switch i8 %24, label %.loopexit.sink.split [
    i8 36, label %25
    i8 64, label %25
  ]

25:                                               ; preds = %unicode_byte_type.exit, %unicode_byte_type.exit, %unicode_byte_type.exit, %unicode_byte_type.exit, %unicode_byte_type.exit, %unicode_byte_type.exit, %unicode_byte_type.exit, %unicode_byte_type.exit, %unicode_byte_type.exit, %unicode_byte_type.exit, %unicode_byte_type.exit, %unicode_byte_type.exit, %unicode_byte_type.exit, %unicode_byte_type.exit, %unicode_byte_type.exit, %unicode_byte_type.exit, %unicode_byte_type.exit, %unicode_byte_type.exit, %19, %22, %.critedge.thread, %.critedge.thread
  %.020 = getelementptr inbounds nuw i8, ptr %.02026, i64 2
  %26 = ptrtoint ptr %.020 to i64
  %27 = sub i64 %6, %26
  %28 = icmp sgt i64 %27, 1
  br i1 %28, label %11, label %.loopexit, !llvm.loop !109

.loopexit.sink.split:                             ; preds = %11, %.critedge.thread, %19
  store ptr %.02026, ptr %3, align 8, !tbaa !4
  br label %.loopexit

.loopexit:                                        ; preds = %25, %.loopexit.sink.split, %4
  %.0 = phi i32 [ 1, %4 ], [ 0, %.loopexit.sink.split ], [ 1, %25 ]
  ret i32 %.0
}